target datalayout = "e-m:e-p270:32:32-p271:32:32-p272:64:64-i64:64-i128:128-f80:128-n8:16:32:64-S128"
target triple = "x86_64-pc-linux-gnu"

%"class.std::__cxx11::basic_string" = type { %"struct.std::__cxx11::basic_string<char>::_Alloc_hider", i64, %union.anon }
%"struct.std::__cxx11::basic_string<char>::_Alloc_hider" = type { ptr }
%union.anon = type { i64, [8 x i8] }
%class.Statement = type { ptr, i32, i32, ptr, ptr }
%class.Expression = type { ptr, i32, i32, ptr }
%class.StatementAssign = type { %class.Statement, i32, ptr, ptr, ptr, ptr, %"class.std::__cxx11::basic_string", %"class.std::__cxx11::basic_string" }
%class.StatementExpr = type { %class.Statement, %class.ExpressionFuncall }
%class.ExpressionFuncall = type { %class.Expression, ptr }
%class.StatementIf = type { %class.Statement, ptr, ptr, ptr }

; Function Attrs: mustprogress nounwind uwtable
define linkonce_odr dso_local noundef ptr @_ZNK17ExpressionFuncall10get_invokeEv(ptr noundef nonnull align 8 dereferenceable(32) %0) unnamed_addr #4 comdat align 2 {
  %2 = alloca ptr, align 8
  store ptr %0, ptr %2, align 8
  %3 = load ptr, ptr %2, align 8
  %4 = getelementptr inbounds %class.ExpressionFuncall, ptr %3, i32 0, i32 1
  %5 = load ptr, ptr %4, align 8
  ret ptr %5
}

; Function Attrs: mustprogress nounwind uwtable
define linkonce_odr dso_local noundef ptr @_ZNK11StatementIf8get_testEv(ptr noundef nonnull align 8 dereferenceable(56) %0) #4 comdat align 2 {
  %2 = alloca ptr, align 8
  store ptr %0, ptr %2, align 8
  %3 = load ptr, ptr %2, align 8
  %4 = getelementptr inbounds %class.StatementIf, ptr %3, i32 0, i32 1
  %5 = load ptr, ptr %4, align 8
  ret ptr %5
}

; Function Attrs: mustprogress uwtable
define linkonce_odr dso_local noundef ptr @_ZNK13StatementExpr10get_invokeEv(ptr noundef nonnull align 8 dereferenceable(64) %0) #5 comdat align 2 {
  %2 = alloca ptr, align 8
  store ptr %0, ptr %2, align 8
  %3 = load ptr, ptr %2, align 8
  %4 = getelementptr inbounds %class.StatementExpr, ptr %3, i32 0, i32 1
  %5 = call noundef ptr @_ZNK17ExpressionFuncall10get_invokeEv(ptr noundef nonnull align 8 dereferenceable(32) %4)
  ret ptr %5
}

; Function Attrs: mustprogress nounwind uwtable
define linkonce_odr dso_local noundef ptr @_ZNK15StatementAssign8get_exprEv(ptr noundef nonnull align 8 dereferenceable(136) %0) #4 comdat align 2 {
  %2 = alloca ptr, align 8
  store ptr %0, ptr %2, align 8
  %3 = load ptr, ptr %2, align 8
  %4 = getelementptr inbounds %class.StatementAssign, ptr %3, i32 0, i32 3
  %5 = load ptr, ptr %4, align 8
  ret ptr %5
}

; Function Attrs: mustprogress uwtable
define dso_local noundef ptr @_ZNK9Statement21get_direct_invocationEv(ptr noundef nonnull align 8 dereferenceable(32) %0) #5 align 2 {
  %2 = alloca ptr, align 8
  %3 = alloca ptr, align 8
  %4 = alloca ptr, align 8
  %5 = alloca ptr, align 8
  %6 = alloca ptr, align 8
  store ptr %0, ptr %3, align 8
  %7 = load ptr, ptr %3, align 8
  %8 = getelementptr inbounds %class.Statement, ptr %7, i32 0, i32 1
  %9 = load i32, ptr %8, align 8
  %10 = icmp eq i32 %9, 0
  br i1 %10, label %11, label %24

11:                                               ; preds = %1
  %12 = call noundef ptr @_ZNK15StatementAssign8get_exprEv(ptr noundef nonnull align 8 dereferenceable(136) %7)
  store ptr %12, ptr %4, align 8
  %13 = load ptr, ptr %4, align 8
  %14 = getelementptr inbounds %class.Expression, ptr %13, i32 0, i32 1
  %15 = load i32, ptr %14, align 8
  %16 = icmp eq i32 %15, 2
  br i1 %16, label %17, label %23

17:                                               ; preds = %11
  %18 = load ptr, ptr %4, align 8
  %19 = load ptr, ptr %18, align 8
  %20 = getelementptr inbounds ptr, ptr %19, i64 7
  %21 = load ptr, ptr %20, align 8
  %22 = call noundef ptr %21(ptr noundef nonnull align 8 dereferenceable(32) %18)
  store ptr %22, ptr %2, align 8
  br label %51

23:                                               ; preds = %11
  br label %50

24:                                               ; preds = %1
  %25 = getelementptr inbounds %class.Statement, ptr %7, i32 0, i32 1
  %26 = load i32, ptr %25, align 8
  %27 = icmp eq i32 %26, 4
  br i1 %27, label %28, label %30

28:                                               ; preds = %24
  %29 = call noundef ptr @_ZNK13StatementExpr10get_invokeEv(ptr noundef nonnull align 8 dereferenceable(64) %7)
  store ptr %29, ptr %2, align 8
  br label %51

30:                                               ; preds = %24
  %31 = getelementptr inbounds %class.Statement, ptr %7, i32 0, i32 1
  %32 = load i32, ptr %31, align 8
  %33 = icmp eq i32 %32, 3
  br i1 %33, label %34, label %48

34:                                               ; preds = %30
  store ptr %7, ptr %5, align 8
  %35 = load ptr, ptr %5, align 8
  %36 = call noundef ptr @_ZNK11StatementIf8get_testEv(ptr noundef nonnull align 8 dereferenceable(56) %35)
  store ptr %36, ptr %6, align 8
  %37 = load ptr, ptr %6, align 8
  %38 = getelementptr inbounds %class.Expression, ptr %37, i32 0, i32 1
  %39 = load i32, ptr %38, align 8
  %40 = icmp eq i32 %39, 2
  br i1 %40, label %41, label %47

41:                                               ; preds = %34
  %42 = load ptr, ptr %6, align 8
  %43 = load ptr, ptr %42, align 8
  %44 = getelementptr inbounds ptr, ptr %43, i64 7
  %45 = load ptr, ptr %44, align 8
  %46 = call noundef ptr %45(ptr noundef nonnull align 8 dereferenceable(32) %42)
  store ptr %46, ptr %2, align 8
  br label %51

47:                                               ; preds = %34
  br label %48

48:                                               ; preds = %47, %30
  br label %49

49:                                               ; preds = %48
  br label %50

50:                                               ; preds = %49, %23
  store ptr null, ptr %2, align 8
  br label %51

51:                                               ; preds = %50, %41, %28, %17
  %52 = load ptr, ptr %2, align 8
  ret ptr %52
}