; Function Attrs: mustprogress uwtable
define dso_local noundef ptr @_ZNK9Statement21get_direct_invocationEv(ptr nocapture noundef nonnull readonly align 8 dereferenceable(32) %0) local_unnamed_addr #4 align 2 {
  %2 = getelementptr inbounds i8, ptr %0, i64 8
  %3 = load i32, ptr %2, align 8
  switch i32 %3, label %29 [
    i32 0, label %4
    i32 4, label %15
    i32 3, label %18
  ]

4:                                                ; preds = %1
  %5 = getelementptr inbounds i8, ptr %0, i64 48
  %6 = load ptr, ptr %5, align 8
  %7 = getelementptr inbounds i8, ptr %6, i64 8
  %8 = load i32, ptr %7, align 8
  %9 = icmp eq i32 %8, 2
  br i1 %9, label %10, label %29

10:                                               ; preds = %4
  %11 = load ptr, ptr %6, align 8
  %12 = getelementptr inbounds i8, ptr %11, i64 56
  %13 = load ptr, ptr %12, align 8
  %14 = tail call noundef ptr %13(ptr noundef nonnull align 8 dereferenceable(32) %6)
  br label %29

15:                                               ; preds = %1
  %16 = getelementptr inbounds i8, ptr %0, i64 56
  %17 = load ptr, ptr %16, align 8
  br label %29

18:                                               ; preds = %1
  %19 = getelementptr inbounds i8, ptr %0, i64 32
  %20 = load ptr, ptr %19, align 8
  %21 = getelementptr inbounds i8, ptr %20, i64 8
  %22 = load i32, ptr %21, align 8
  %23 = icmp eq i32 %22, 2
  br i1 %23, label %24, label %29

24:                                               ; preds = %18
  %25 = load ptr, ptr %20, align 8
  %26 = getelementptr inbounds i8, ptr %25, i64 56
  %27 = load ptr, ptr %26, align 8
  %28 = tail call noundef ptr %27(ptr noundef nonnull align 8 dereferenceable(32) %20)
  br label %29

29:                                               ; preds = %4, %18, %1, %24, %15, %10
  %.0 = phi ptr [ %14, %10 ], [ %17, %15 ], [ %28, %24 ], [ null, %1 ], [ null, %18 ], [ null, %4 ]
  ret ptr %.0
}